target datalayout = "e-m:e-p270:32:32-p271:32:32-p272:64:64-i64:64-i128:128-f80:128-n8:16:32:64-S128"
target triple = "x86_64-pc-linux-gnu"

%"class.icu_77::UnicodeString" = type { %"class.icu_77::Replaceable", %"union.icu_77::UnicodeString::StackBufferOrFields" }
%"class.icu_77::Replaceable" = type { %"class.icu_77::UObject" }
%"class.icu_77::UObject" = type { ptr }
%"union.icu_77::UnicodeString::StackBufferOrFields" = type { %struct.anon.0, [32 x i8] }
%struct.anon.0 = type { i16, i32, i32, ptr }
%"class.icu_77::DateIntervalFormat" = type <{ %"class.icu_77::Format", ptr, ptr, ptr, ptr, %"class.icu_77::Locale", %"class.icu_77::UnicodeString", [9 x %"struct.icu_77::DateIntervalFormat::PatternInfo"], ptr, ptr, ptr, i32, [4 x i8] }>
%"class.icu_77::Format" = type { %"class.icu_77::UObject", ptr, ptr }
%"class.icu_77::Locale" = type <{ %"class.icu_77::UObject", [12 x i8], [6 x i8], [4 x i8], [2 x i8], i32, [4 x i8], ptr, [157 x i8], [3 x i8], ptr, i8, [7 x i8] }>
%"struct.icu_77::DateIntervalFormat::PatternInfo" = type <{ %"class.icu_77::UnicodeString", %"class.icu_77::UnicodeString", i8, [7 x i8] }>

; Function Attrs: inlinehint mustprogress nounwind uwtable
define internal noundef signext i8 @_ZL9U_FAILURE10UErrorCode(i32 noundef %0) #2 {
  %2 = alloca i32, align 4
  store i32 %0, ptr %2, align 4, !tbaa !15
  %3 = load i32, ptr %2, align 4, !tbaa !15
  %4 = icmp sgt i32 %3, 0
  %5 = zext i1 %4 to i8
  ret i8 %5
}

; Function Attrs: mustprogress uwtable
define void @_ZN6icu_7718DateIntervalFormat14setPatternInfoE19UCalendarDateFieldsPKNS_13UnicodeStringES4_a(ptr noundef nonnull align 8 dereferenceable(1596) %0, i32 noundef %1, ptr noundef %2, ptr noundef %3, i8 noundef signext %4) #1 align 2 {
  %6 = alloca ptr, align 8
  %7 = alloca i32, align 4
  %8 = alloca ptr, align 8
  %9 = alloca ptr, align 8
  %10 = alloca i8, align 1
  %11 = alloca i32, align 4
  %12 = alloca i32, align 4
  %13 = alloca i32, align 4
  %14 = alloca ptr, align 8
  store ptr %0, ptr %6, align 8, !tbaa !39
  store i32 %1, ptr %7, align 4, !tbaa !110
  store ptr %2, ptr %8, align 8, !tbaa !41
  store ptr %3, ptr %9, align 8, !tbaa !41
  store i8 %4, ptr %10, align 1, !tbaa !65
  %15 = load ptr, ptr %6, align 8
  call void @llvm.lifetime.start.p0(i64 4, ptr %11) #12
  store i32 0, ptr %11, align 4, !tbaa !15
  call void @llvm.lifetime.start.p0(i64 4, ptr %12) #12
  %16 = load i32, ptr %7, align 4, !tbaa !110
  %17 = call noundef i32 @_ZN6icu_7716DateIntervalInfo28calendarFieldToIntervalIndexE19UCalendarDateFieldsR10UErrorCode(i32 noundef %16, ptr noundef nonnull align 4 dereferenceable(4) %11)
  store i32 %17, ptr %12, align 4, !tbaa !14
  %18 = load i32, ptr %11, align 4, !tbaa !15
  %19 = call noundef signext i8 @_ZL9U_FAILURE10UErrorCode(i32 noundef %18)
  %20 = icmp ne i8 %19, 0
  br i1 %20, label %21, label %22

21:                                               ; preds = %5
  store i32 1, ptr %13, align 4
  br label %46

22:                                               ; preds = %5
  call void @llvm.lifetime.start.p0(i64 8, ptr %14) #12
  %23 = getelementptr inbounds nuw %"class.icu_77::DateIntervalFormat", ptr %15, i32 0, i32 7
  %24 = load i32, ptr %12, align 4, !tbaa !14
  %25 = sext i32 %24 to i64
  %26 = getelementptr inbounds [9 x %"struct.icu_77::DateIntervalFormat::PatternInfo"], ptr %23, i64 0, i64 %25
  store ptr %26, ptr %14, align 8, !tbaa !66
  %27 = load ptr, ptr %8, align 8, !tbaa !41
  %28 = icmp ne ptr %27, null
  br i1 %28, label %29, label %34

29:                                               ; preds = %22
  %30 = load ptr, ptr %8, align 8, !tbaa !41
  %31 = load ptr, ptr %14, align 8, !tbaa !66
  %32 = getelementptr inbounds nuw %"struct.icu_77::DateIntervalFormat::PatternInfo", ptr %31, i32 0, i32 0
  %33 = call noundef nonnull align 8 dereferenceable(64) ptr @_ZN6icu_7713UnicodeStringaSERKS0_(ptr noundef nonnull align 8 dereferenceable(64) %32, ptr noundef nonnull align 8 dereferenceable(64) %30)
  br label %34

34:                                               ; preds = %29, %22
  %35 = load ptr, ptr %9, align 8, !tbaa !41
  %36 = icmp ne ptr %35, null
  br i1 %36, label %37, label %42

37:                                               ; preds = %34
  %38 = load ptr, ptr %9, align 8, !tbaa !41
  %39 = load ptr, ptr %14, align 8, !tbaa !66
  %40 = getelementptr inbounds nuw %"struct.icu_77::DateIntervalFormat::PatternInfo", ptr %39, i32 0, i32 1
  %41 = call noundef nonnull align 8 dereferenceable(64) ptr @_ZN6icu_7713UnicodeStringaSERKS0_(ptr noundef nonnull align 8 dereferenceable(64) %40, ptr noundef nonnull align 8 dereferenceable(64) %38)
  br label %42

42:                                               ; preds = %37, %34
  %43 = load i8, ptr %10, align 1, !tbaa !65
  %44 = load ptr, ptr %14, align 8, !tbaa !66
  %45 = getelementptr inbounds nuw %"struct.icu_77::DateIntervalFormat::PatternInfo", ptr %44, i32 0, i32 2
  store i8 %43, ptr %45, align 8, !tbaa !76
  call void @llvm.lifetime.end.p0(i64 8, ptr %14) #12
  store i32 0, ptr %13, align 4
  br label %46

46:                                               ; preds = %42, %21
  call void @llvm.lifetime.end.p0(i64 4, ptr %12) #12
  call void @llvm.lifetime.end.p0(i64 4, ptr %11) #12
  %47 = load i32, ptr %13, align 4
  switch i32 %47, label %49 [
    i32 0, label %48
    i32 1, label %48
  ]

48:                                               ; preds = %46, %46
  ret void

49:                                               ; preds = %46
  unreachable
}