; Function Attrs: mustprogress uwtable
define void @_ZN6icu_7718DateIntervalFormat14setPatternInfoE19UCalendarDateFieldsPKNS_13UnicodeStringES4_a(ptr noundef nonnull align 8 dereferenceable(1596) %0, i32 noundef %1, ptr noundef %2, ptr noundef %3, i8 noundef signext %4) local_unnamed_addr #1 align 2 {
  %6 = alloca i32, align 4
  call void @llvm.lifetime.start.p0(i64 4, ptr nonnull %6) #19
  store i32 0, ptr %6, align 4, !tbaa !13
  %7 = call noundef i32 @_ZN6icu_7716DateIntervalInfo28calendarFieldToIntervalIndexE19UCalendarDateFieldsR10UErrorCode(i32 noundef %1, ptr noundef nonnull align 4 dereferenceable(4) %6)
  %8 = load i32, ptr %6, align 4, !tbaa !13
  %9 = icmp slt i32 %8, 1
  br i1 %9, label %10, label %22

10:                                               ; preds = %5
  %11 = getelementptr inbounds nuw i8, ptr %0, i64 344
  %12 = sext i32 %7 to i64
  %13 = getelementptr inbounds [9 x %"struct.icu_77::DateIntervalFormat::PatternInfo"], ptr %11, i64 0, i64 %12
  %.not11 = icmp eq ptr %2, null
  br i1 %.not11, label %16, label %14

14:                                               ; preds = %10
  %15 = call noundef nonnull align 8 dereferenceable(64) ptr @_ZN6icu_7713UnicodeStringaSERKS0_(ptr noundef nonnull align 8 dereferenceable(64) %13, ptr noundef nonnull align 8 dereferenceable(64) %2)
  br label %16

16:                                               ; preds = %14, %10
  %.not12 = icmp eq ptr %3, null
  br i1 %.not12, label %20, label %17

17:                                               ; preds = %16
  %18 = getelementptr inbounds nuw i8, ptr %13, i64 64
  %19 = call noundef nonnull align 8 dereferenceable(64) ptr @_ZN6icu_7713UnicodeStringaSERKS0_(ptr noundef nonnull align 8 dereferenceable(64) %18, ptr noundef nonnull align 8 dereferenceable(64) %3)
  br label %20

20:                                               ; preds = %17, %16
  %21 = getelementptr inbounds nuw i8, ptr %13, i64 128
  store i8 %4, ptr %21, align 8, !tbaa !55
  br label %22

22:                                               ; preds = %5, %20
  call void @llvm.lifetime.end.p0(i64 4, ptr nonnull %6) #19
  ret void
}